target datalayout = "e-m:e-p270:32:32-p271:32:32-p272:64:64-i64:64-i128:128-f80:128-n8:16:32:64-S128"
target triple = "x86_64-pc-linux-gnu"

%struct._YR_ARENA_PAGE = type { ptr, ptr, i64, i64, ptr, ptr, ptr, ptr }
%struct._YR_ARENA = type { i32, ptr, ptr }

; Function Attrs: nounwind uwtable
define ptr @_yr_arena_page_for_address(ptr noundef %0, ptr noundef %1) #0 {
  %3 = alloca ptr, align 8
  %4 = alloca ptr, align 8
  %5 = alloca ptr, align 8
  %6 = alloca ptr, align 8
  store ptr %0, ptr %4, align 8
  store ptr %1, ptr %5, align 8
  %7 = load ptr, ptr %4, align 8
  %8 = getelementptr inbounds %struct._YR_ARENA, ptr %7, i32 0, i32 2
  %9 = load ptr, ptr %8, align 8
  store ptr %9, ptr %6, align 8
  %10 = load ptr, ptr %6, align 8
  %11 = icmp ne ptr %10, null
  br i1 %11, label %12, label %30

12:                                               ; preds = %2
  %13 = load ptr, ptr %5, align 8
  %14 = load ptr, ptr %6, align 8
  %15 = getelementptr inbounds %struct._YR_ARENA_PAGE, ptr %14, i32 0, i32 1
  %16 = load ptr, ptr %15, align 8
  %17 = icmp uge ptr %13, %16
  br i1 %17, label %18, label %30

18:                                               ; preds = %12
  %19 = load ptr, ptr %5, align 8
  %20 = load ptr, ptr %6, align 8
  %21 = getelementptr inbounds %struct._YR_ARENA_PAGE, ptr %20, i32 0, i32 1
  %22 = load ptr, ptr %21, align 8
  %23 = load ptr, ptr %6, align 8
  %24 = getelementptr inbounds %struct._YR_ARENA_PAGE, ptr %23, i32 0, i32 3
  %25 = load i64, ptr %24, align 8
  %26 = getelementptr inbounds i8, ptr %22, i64 %25
  %27 = icmp ult ptr %19, %26
  br i1 %27, label %28, label %30

28:                                               ; preds = %18
  %29 = load ptr, ptr %6, align 8
  store ptr %29, ptr %3, align 8
  br label %60

30:                                               ; preds = %18, %12, %2
  %31 = load ptr, ptr %4, align 8
  %32 = getelementptr inbounds %struct._YR_ARENA, ptr %31, i32 0, i32 1
  %33 = load ptr, ptr %32, align 8
  store ptr %33, ptr %6, align 8
  br label %34

34:                                               ; preds = %55, %30
  %35 = load ptr, ptr %6, align 8
  %36 = icmp ne ptr %35, null
  br i1 %36, label %37, label %59

37:                                               ; preds = %34
  %38 = load ptr, ptr %5, align 8
  %39 = load ptr, ptr %6, align 8
  %40 = getelementptr inbounds %struct._YR_ARENA_PAGE, ptr %39, i32 0, i32 1
  %41 = load ptr, ptr %40, align 8
  %42 = icmp uge ptr %38, %41
  br i1 %42, label %43, label %55

43:                                               ; preds = %37
  %44 = load ptr, ptr %5, align 8
  %45 = load ptr, ptr %6, align 8
  %46 = getelementptr inbounds %struct._YR_ARENA_PAGE, ptr %45, i32 0, i32 1
  %47 = load ptr, ptr %46, align 8
  %48 = load ptr, ptr %6, align 8
  %49 = getelementptr inbounds %struct._YR_ARENA_PAGE, ptr %48, i32 0, i32 3
  %50 = load i64, ptr %49, align 8
  %51 = getelementptr inbounds i8, ptr %47, i64 %50
  %52 = icmp ult ptr %44, %51
  br i1 %52, label %53, label %55

53:                                               ; preds = %43
  %54 = load ptr, ptr %6, align 8
  store ptr %54, ptr %3, align 8
  br label %60

55:                                               ; preds = %43, %37
  %56 = load ptr, ptr %6, align 8
  %57 = getelementptr inbounds %struct._YR_ARENA_PAGE, ptr %56, i32 0, i32 6
  %58 = load ptr, ptr %57, align 8
  store ptr %58, ptr %6, align 8
  br label %34

59:                                               ; preds = %34
  store ptr null, ptr %3, align 8
  br label %60

60:                                               ; preds = %59, %53, %28
  %61 = load ptr, ptr %3, align 8
  ret ptr %61
}