; Function Attrs: nofree norecurse nosync nounwind memory(read, inaccessiblemem: none) uwtable
define ptr @_yr_arena_page_for_address(ptr nocapture noundef readonly %0, ptr noundef readnone %1) local_unnamed_addr #3 {
  %3 = getelementptr inbounds i8, ptr %0, i64 16
  %4 = load ptr, ptr %3, align 8
  %.not = icmp eq ptr %4, null
  br i1 %.not, label %13, label %5

5:                                                ; preds = %2
  %6 = getelementptr inbounds i8, ptr %4, i64 8
  %7 = load ptr, ptr %6, align 8
  %.not23 = icmp ugt ptr %7, %1
  br i1 %.not23, label %13, label %8

8:                                                ; preds = %5
  %9 = getelementptr inbounds i8, ptr %4, i64 24
  %10 = load i64, ptr %9, align 8
  %11 = getelementptr inbounds i8, ptr %7, i64 %10
  %12 = icmp ugt ptr %11, %1
  br i1 %12, label %.loopexit, label %13

13:                                               ; preds = %8, %5, %2
  %14 = getelementptr inbounds i8, ptr %0, i64 8
  %.026 = load ptr, ptr %14, align 8
  %.not2427 = icmp eq ptr %.026, null
  br i1 %.not2427, label %.loopexit, label %.lr.ph

.lr.ph:                                           ; preds = %13, %22
  %.028 = phi ptr [ %.0, %22 ], [ %.026, %13 ]
  %15 = getelementptr inbounds i8, ptr %.028, i64 8
  %16 = load ptr, ptr %15, align 8
  %.not25 = icmp ugt ptr %16, %1
  br i1 %.not25, label %22, label %17

17:                                               ; preds = %.lr.ph
  %18 = getelementptr inbounds i8, ptr %.028, i64 24
  %19 = load i64, ptr %18, align 8
  %20 = getelementptr inbounds i8, ptr %16, i64 %19
  %21 = icmp ugt ptr %20, %1
  br i1 %21, label %.loopexit, label %22

22:                                               ; preds = %17, %.lr.ph
  %23 = getelementptr inbounds i8, ptr %.028, i64 48
  %.0 = load ptr, ptr %23, align 8
  %.not24 = icmp eq ptr %.0, null
  br i1 %.not24, label %.loopexit, label %.lr.ph

.loopexit:                                        ; preds = %17, %22, %13, %8
  %.018 = phi ptr [ %4, %8 ], [ null, %13 ], [ %.028, %17 ], [ null, %22 ]
  ret ptr %.018
}